target datalayout = "e-m:e-p270:32:32-p271:32:32-p272:64:64-i64:64-i128:128-f80:128-n8:16:32:64-S128"
target triple = "x86_64-pc-linux-gnu"

%"class.icu_77::UnicodeString" = type { %"class.icu_77::Replaceable", %"union.icu_77::UnicodeString::StackBufferOrFields" }
%"class.icu_77::Replaceable" = type { %"class.icu_77::UObject" }
%"class.icu_77::UObject" = type { ptr }
%"union.icu_77::UnicodeString::StackBufferOrFields" = type { %struct.anon.0, [32 x i8] }
%struct.anon.0 = type { i16, i32, i32, ptr }
%struct.anon = type { i16, [27 x i16] }

@_ZN6icu_7716SimpleDateFormat22fgCalendarFieldToLevelE = constant [24 x i32] [i32 0, i32 10, i32 20, i32 20, i32 30, i32 30, i32 20, i32 30, i32 30, i32 40, i32 50, i32 50, i32 60, i32 70, i32 80, i32 0, i32 0, i32 10, i32 30, i32 10, i32 0, i32 40, i32 0, i32 0], align 16

; Function Attrs: inlinehint mustprogress nounwind uwtable
define linkonce_odr noundef ptr @_ZNK6icu_7713UnicodeString13getArrayStartEv(ptr noundef nonnull align 8 dereferenceable(64) %0) #2 comdat align 2 {
  %2 = alloca ptr, align 8
  store ptr %0, ptr %2, align 8, !tbaa !72
  %3 = load ptr, ptr %2, align 8
  %4 = getelementptr inbounds nuw %"class.icu_77::UnicodeString", ptr %3, i32 0, i32 1
  %5 = getelementptr inbounds nuw %struct.anon.0, ptr %4, i32 0, i32 0
  %6 = load i16, ptr %5, align 8, !tbaa !74
  %7 = sext i16 %6 to i32
  %8 = and i32 %7, 2
  %9 = icmp ne i32 %8, 0
  br i1 %9, label %10, label %14

10:                                               ; preds = %1
  %11 = getelementptr inbounds nuw %"class.icu_77::UnicodeString", ptr %3, i32 0, i32 1
  %12 = getelementptr inbounds nuw %struct.anon, ptr %11, i32 0, i32 1
  %13 = getelementptr inbounds [27 x i16], ptr %12, i64 0, i64 0
  br label %18

14:                                               ; preds = %1
  %15 = getelementptr inbounds nuw %"class.icu_77::UnicodeString", ptr %3, i32 0, i32 1
  %16 = getelementptr inbounds nuw %struct.anon.0, ptr %15, i32 0, i32 3
  %17 = load ptr, ptr %16, align 8, !tbaa !74
  br label %18

18:                                               ; preds = %14, %10
  %19 = phi ptr [ %13, %10 ], [ %17, %14 ]
  ret ptr %19
}

; Function Attrs: inlinehint mustprogress uwtable
define linkonce_odr noundef zeroext i16 @_ZNK6icu_7713UnicodeString8doCharAtEi(ptr noundef nonnull align 8 dereferenceable(64) %0, i32 noundef %1) #3 comdat align 2 {
  %3 = alloca i16, align 2
  %4 = alloca ptr, align 8
  %5 = alloca i32, align 4
  store ptr %0, ptr %4, align 8, !tbaa !72
  store i32 %1, ptr %5, align 4, !tbaa !14
  %6 = load ptr, ptr %4, align 8
  %7 = load i32, ptr %5, align 4, !tbaa !14
  %8 = call noundef i32 @_ZNK6icu_7713UnicodeString6lengthEv(ptr noundef nonnull align 8 dereferenceable(64) %6)
  %9 = icmp ult i32 %7, %8
  br i1 %9, label %10, label %16

10:                                               ; preds = %2
  %11 = call noundef ptr @_ZNK6icu_7713UnicodeString13getArrayStartEv(ptr noundef nonnull align 8 dereferenceable(64) %6)
  %12 = load i32, ptr %5, align 4, !tbaa !14
  %13 = sext i32 %12 to i64
  %14 = getelementptr inbounds i16, ptr %11, i64 %13
  %15 = load i16, ptr %14, align 2, !tbaa !141
  store i16 %15, ptr %3, align 2
  br label %17

16:                                               ; preds = %2
  store i16 -1, ptr %3, align 2
  br label %17

17:                                               ; preds = %16, %10
  %18 = load i16, ptr %3, align 2
  ret i16 %18
}

; Function Attrs: inlinehint mustprogress nounwind uwtable
define linkonce_odr noundef i32 @_ZNK6icu_7713UnicodeString14getShortLengthEv(ptr noundef nonnull align 8 dereferenceable(64) %0) #2 comdat align 2 {
  %2 = alloca ptr, align 8
  store ptr %0, ptr %2, align 8, !tbaa !72
  %3 = load ptr, ptr %2, align 8
  %4 = getelementptr inbounds nuw %"class.icu_77::UnicodeString", ptr %3, i32 0, i32 1
  %5 = getelementptr inbounds nuw %struct.anon.0, ptr %4, i32 0, i32 0
  %6 = load i16, ptr %5, align 8, !tbaa !74
  %7 = sext i16 %6 to i32
  %8 = ashr i32 %7, 5
  ret i32 %8
}

; Function Attrs: inlinehint mustprogress nounwind uwtable
define linkonce_odr noundef signext i8 @_ZNK6icu_7713UnicodeString14hasShortLengthEv(ptr noundef nonnull align 8 dereferenceable(64) %0) #2 comdat align 2 {
  %2 = alloca ptr, align 8
  store ptr %0, ptr %2, align 8, !tbaa !72
  %3 = load ptr, ptr %2, align 8
  %4 = getelementptr inbounds nuw %"class.icu_77::UnicodeString", ptr %3, i32 0, i32 1
  %5 = getelementptr inbounds nuw %struct.anon.0, ptr %4, i32 0, i32 0
  %6 = load i16, ptr %5, align 8, !tbaa !74
  %7 = sext i16 %6 to i32
  %8 = icmp sge i32 %7, 0
  %9 = zext i1 %8 to i8
  ret i8 %9
}

; Function Attrs: mustprogress nounwind uwtable
define noundef signext i8 @_ZN6icu_7716SimpleDateFormat12isSyntaxCharEDs(i16 noundef zeroext %0) #0 align 2 {
  %2 = alloca i16, align 2
  store i16 %0, ptr %2, align 2, !tbaa !141
  %3 = load i16, ptr %2, align 2, !tbaa !141
  %4 = zext i16 %3 to i32
  %5 = icmp slt i32 %4, 128
  br i1 %5, label %6, label %12

6:                                                ; preds = %1
  %7 = load i16, ptr %2, align 2, !tbaa !141
  %8 = zext i16 %7 to i64
  %9 = getelementptr inbounds nuw [128 x i8], ptr @_ZZN6icu_7716SimpleDateFormat12isSyntaxCharEDsE17mapCharToIsSyntax, i64 0, i64 %8
  %10 = load i8, ptr %9, align 1, !tbaa !74
  %11 = sext i8 %10 to i32
  br label %13

12:                                               ; preds = %1
  br label %13

13:                                               ; preds = %12, %6
  %14 = phi i32 [ %11, %6 ], [ 0, %12 ]
  %15 = trunc i32 %14 to i8
  ret i8 %15
}

; Function Attrs: mustprogress nounwind uwtable
define noundef i32 @_ZN6icu_7716SimpleDateFormat16getLevelFromCharEDs(i16 noundef zeroext %0) #0 align 2 {
  %2 = alloca i16, align 2
  store i16 %0, ptr %2, align 2, !tbaa !141
  %3 = load i16, ptr %2, align 2, !tbaa !141
  %4 = zext i16 %3 to i32
  %5 = icmp slt i32 %4, 128
  br i1 %5, label %6, label %11

6:                                                ; preds = %1
  %7 = load i16, ptr %2, align 2, !tbaa !141
  %8 = zext i16 %7 to i64
  %9 = getelementptr inbounds nuw [128 x i32], ptr @_ZZN6icu_7716SimpleDateFormat16getLevelFromCharEDsE14mapCharToLevel, i64 0, i64 %8
  %10 = load i32, ptr %9, align 4, !tbaa !14
  br label %12

11:                                               ; preds = %1
  br label %12

12:                                               ; preds = %11, %6
  %13 = phi i32 [ %10, %6 ], [ -1, %11 ]
  ret i32 %13
}

; Function Attrs: inlinehint mustprogress uwtable
define linkonce_odr noundef zeroext i16 @_ZNK6icu_7713UnicodeStringixEi(ptr noundef nonnull align 8 dereferenceable(64) %0, i32 noundef %1) #3 comdat align 2 {
  %3 = alloca ptr, align 8
  %4 = alloca i32, align 4
  store ptr %0, ptr %3, align 8, !tbaa !72
  store i32 %1, ptr %4, align 4, !tbaa !14
  %5 = load ptr, ptr %3, align 8
  %6 = load i32, ptr %4, align 4, !tbaa !14
  %7 = call noundef zeroext i16 @_ZNK6icu_7713UnicodeString8doCharAtEi(ptr noundef nonnull align 8 dereferenceable(64) %5, i32 noundef %6)
  ret i16 %7
}

; Function Attrs: inlinehint mustprogress uwtable
define linkonce_odr noundef i32 @_ZNK6icu_7713UnicodeString6lengthEv(ptr noundef nonnull align 8 dereferenceable(64) %0) #3 comdat align 2 {
  %2 = alloca ptr, align 8
  store ptr %0, ptr %2, align 8, !tbaa !72
  %3 = load ptr, ptr %2, align 8
  %4 = call noundef signext i8 @_ZNK6icu_7713UnicodeString14hasShortLengthEv(ptr noundef nonnull align 8 dereferenceable(64) %3)
  %5 = icmp ne i8 %4, 0
  br i1 %5, label %6, label %8

6:                                                ; preds = %1
  %7 = call noundef i32 @_ZNK6icu_7713UnicodeString14getShortLengthEv(ptr noundef nonnull align 8 dereferenceable(64) %3)
  br label %12

8:                                                ; preds = %1
  %9 = getelementptr inbounds nuw %"class.icu_77::UnicodeString", ptr %3, i32 0, i32 1
  %10 = getelementptr inbounds nuw %struct.anon.0, ptr %9, i32 0, i32 1
  %11 = load i32, ptr %10, align 4, !tbaa !74
  br label %12

12:                                               ; preds = %8, %6
  %13 = phi i32 [ %7, %6 ], [ %11, %8 ]
  ret i32 %13
}

; Function Attrs: mustprogress uwtable
define noundef signext i8 @_ZN6icu_7716SimpleDateFormat18isFieldUnitIgnoredERKNS_13UnicodeStringE19UCalendarDateFields(ptr noundef nonnull align 8 dereferenceable(64) %0, i32 noundef %1) #1 align 2 {
  %3 = alloca i8, align 1
  %4 = alloca ptr, align 8
  %5 = alloca i32, align 4
  %6 = alloca i32, align 4
  %7 = alloca i32, align 4
  %8 = alloca i16, align 2
  %9 = alloca i8, align 1
  %10 = alloca i16, align 2
  %11 = alloca i32, align 4
  %12 = alloca i32, align 4
  %13 = alloca i32, align 4
  store ptr %0, ptr %4, align 8, !tbaa !72
  store i32 %1, ptr %5, align 4, !tbaa !162
  call void @llvm.lifetime.start.p0(i64 4, ptr %6) #12
  %14 = load i32, ptr %5, align 4, !tbaa !162
  %15 = zext i32 %14 to i64
  %16 = getelementptr inbounds nuw [24 x i32], ptr @_ZN6icu_7716SimpleDateFormat22fgCalendarFieldToLevelE, i64 0, i64 %15
  %17 = load i32, ptr %16, align 4, !tbaa !14
  store i32 %17, ptr %6, align 4, !tbaa !14
  call void @llvm.lifetime.start.p0(i64 4, ptr %7) #12
  call void @llvm.lifetime.start.p0(i64 2, ptr %8) #12
  call void @llvm.lifetime.start.p0(i64 1, ptr %9) #12
  store i8 0, ptr %9, align 1, !tbaa !74
  call void @llvm.lifetime.start.p0(i64 2, ptr %10) #12
  store i16 0, ptr %10, align 2, !tbaa !141
  call void @llvm.lifetime.start.p0(i64 4, ptr %11) #12
  store i32 0, ptr %11, align 4, !tbaa !14
  call void @llvm.lifetime.start.p0(i64 4, ptr %12) #12
  store i32 0, ptr %12, align 4, !tbaa !14
  br label %18

18:                                               ; preds = %83, %2
  %19 = load i32, ptr %12, align 4, !tbaa !14
  %20 = load ptr, ptr %4, align 8, !tbaa !72
  %21 = call noundef i32 @_ZNK6icu_7713UnicodeString6lengthEv(ptr noundef nonnull align 8 dereferenceable(64) %20)
  %22 = icmp slt i32 %19, %21
  br i1 %22, label %24, label %23

23:                                               ; preds = %18
  store i32 2, ptr %13, align 4
  br label %86

24:                                               ; preds = %18
  %25 = load ptr, ptr %4, align 8, !tbaa !72
  %26 = load i32, ptr %12, align 4, !tbaa !14
  %27 = call noundef zeroext i16 @_ZNK6icu_7713UnicodeStringixEi(ptr noundef nonnull align 8 dereferenceable(64) %25, i32 noundef %26)
  store i16 %27, ptr %8, align 2, !tbaa !141
  %28 = load i16, ptr %8, align 2, !tbaa !141
  %29 = zext i16 %28 to i32
  %30 = load i16, ptr %10, align 2, !tbaa !141
  %31 = zext i16 %30 to i32
  %32 = icmp ne i32 %29, %31
  br i1 %32, label %33, label %44

33:                                               ; preds = %24
  %34 = load i32, ptr %11, align 4, !tbaa !14
  %35 = icmp sgt i32 %34, 0
  br i1 %35, label %36, label %44

36:                                               ; preds = %33
  %37 = load i16, ptr %10, align 2, !tbaa !141
  %38 = call noundef i32 @_ZN6icu_7716SimpleDateFormat16getLevelFromCharEDs(i16 noundef zeroext %37)
  store i32 %38, ptr %7, align 4, !tbaa !14
  %39 = load i32, ptr %6, align 4, !tbaa !14
  %40 = load i32, ptr %7, align 4, !tbaa !14
  %41 = icmp sle i32 %39, %40
  br i1 %41, label %42, label %43

42:                                               ; preds = %36
  store i8 0, ptr %3, align 1
  store i32 1, ptr %13, align 4
  br label %86

43:                                               ; preds = %36
  store i32 0, ptr %11, align 4, !tbaa !14
  br label %44

44:                                               ; preds = %43, %33, %24
  %45 = load i16, ptr %8, align 2, !tbaa !141
  %46 = zext i16 %45 to i32
  %47 = icmp eq i32 %46, 39
  br i1 %47, label %48, label %70

48:                                               ; preds = %44
  %49 = load i32, ptr %12, align 4, !tbaa !14
  %50 = add nsw i32 %49, 1
  %51 = load ptr, ptr %4, align 8, !tbaa !72
  %52 = call noundef i32 @_ZNK6icu_7713UnicodeString6lengthEv(ptr noundef nonnull align 8 dereferenceable(64) %51)
  %53 = icmp slt i32 %50, %52
  br i1 %53, label %54, label %64

54:                                               ; preds = %48
  %55 = load ptr, ptr %4, align 8, !tbaa !72
  %56 = load i32, ptr %12, align 4, !tbaa !14
  %57 = add nsw i32 %56, 1
  %58 = call noundef zeroext i16 @_ZNK6icu_7713UnicodeStringixEi(ptr noundef nonnull align 8 dereferenceable(64) %55, i32 noundef %57)
  %59 = zext i16 %58 to i32
  %60 = icmp eq i32 %59, 39
  br i1 %60, label %61, label %64

61:                                               ; preds = %54
  %62 = load i32, ptr %12, align 4, !tbaa !14
  %63 = add nsw i32 %62, 1
  store i32 %63, ptr %12, align 4, !tbaa !14
  br label %69

64:                                               ; preds = %54, %48
  %65 = load i8, ptr %9, align 1, !tbaa !74
  %66 = icmp ne i8 %65, 0
  %67 = xor i1 %66, true
  %68 = zext i1 %67 to i8
  store i8 %68, ptr %9, align 1, !tbaa !74
  br label %69

69:                                               ; preds = %64, %61
  br label %82

70:                                               ; preds = %44
  %71 = load i8, ptr %9, align 1, !tbaa !74
  %72 = icmp ne i8 %71, 0
  br i1 %72, label %81, label %73

73:                                               ; preds = %70
  %74 = load i16, ptr %8, align 2, !tbaa !141
  %75 = call noundef signext i8 @_ZN6icu_7716SimpleDateFormat12isSyntaxCharEDs(i16 noundef zeroext %74)
  %76 = icmp ne i8 %75, 0
  br i1 %76, label %77, label %81

77:                                               ; preds = %73
  %78 = load i16, ptr %8, align 2, !tbaa !141
  store i16 %78, ptr %10, align 2, !tbaa !141
  %79 = load i32, ptr %11, align 4, !tbaa !14
  %80 = add nsw i32 %79, 1
  store i32 %80, ptr %11, align 4, !tbaa !14
  br label %81

81:                                               ; preds = %77, %73, %70
  br label %82

82:                                               ; preds = %81, %69
  br label %83

83:                                               ; preds = %82
  %84 = load i32, ptr %12, align 4, !tbaa !14
  %85 = add nsw i32 %84, 1
  store i32 %85, ptr %12, align 4, !tbaa !14
  br label %18, !llvm.loop !333

86:                                               ; preds = %42, %23
  call void @llvm.lifetime.end.p0(i64 4, ptr %12) #12
  %87 = load i32, ptr %13, align 4
  switch i32 %87, label %100 [
    i32 2, label %88
  ]

88:                                               ; preds = %86
  %89 = load i32, ptr %11, align 4, !tbaa !14
  %90 = icmp sgt i32 %89, 0
  br i1 %90, label %91, label %99

91:                                               ; preds = %88
  %92 = load i16, ptr %10, align 2, !tbaa !141
  %93 = call noundef i32 @_ZN6icu_7716SimpleDateFormat16getLevelFromCharEDs(i16 noundef zeroext %92)
  store i32 %93, ptr %7, align 4, !tbaa !14
  %94 = load i32, ptr %6, align 4, !tbaa !14
  %95 = load i32, ptr %7, align 4, !tbaa !14
  %96 = icmp sle i32 %94, %95
  br i1 %96, label %97, label %98

97:                                               ; preds = %91
  store i8 0, ptr %3, align 1
  store i32 1, ptr %13, align 4
  br label %100

98:                                               ; preds = %91
  br label %99

99:                                               ; preds = %98, %88
  store i8 1, ptr %3, align 1
  store i32 1, ptr %13, align 4
  br label %100

100:                                              ; preds = %99, %97, %86
  call void @llvm.lifetime.end.p0(i64 4, ptr %11) #12
  call void @llvm.lifetime.end.p0(i64 2, ptr %10) #12
  call void @llvm.lifetime.end.p0(i64 1, ptr %9) #12
  call void @llvm.lifetime.end.p0(i64 2, ptr %8) #12
  call void @llvm.lifetime.end.p0(i64 4, ptr %7) #12
  call void @llvm.lifetime.end.p0(i64 4, ptr %6) #12
  %101 = load i8, ptr %3, align 1
  ret i8 %101
}