; Function Attrs: mustprogress nofree norecurse nosync nounwind willreturn memory(read, inaccessiblemem: none) uwtable
define noundef signext range(i8 0, 2) i8 @_ZN6icu_7716SimpleDateFormat18isFieldUnitIgnoredERKNS_13UnicodeStringE19UCalendarDateFields(ptr noundef nonnull readonly align 8 captures(none) dereferenceable(64) %0, i32 noundef %1) local_unnamed_addr #12 align 2 {
  %3 = zext i32 %1 to i64
  %4 = getelementptr inbounds nuw [24 x i32], ptr @_ZN6icu_7716SimpleDateFormat22fgCalendarFieldToLevelE, i64 0, i64 %3
  %5 = load i32, ptr %4, align 4, !tbaa !12
  %6 = getelementptr inbounds nuw i8, ptr %0, i64 8
  %7 = load i16, ptr %6, align 8, !tbaa !51
  %8 = icmp slt i16 %7, 0
  %9 = ashr i16 %7, 5
  %10 = sext i16 %9 to i32
  %11 = getelementptr inbounds nuw i8, ptr %0, i64 12
  %12 = load i32, ptr %11, align 4
  %13 = select i1 %8, i32 %12, i32 %10
  %.not4253 = icmp sgt i32 %13, 0
  br i1 %.not4253, label %.lr.ph, label %.critedge.thread

.lr.ph:                                           ; preds = %2
  %14 = and i16 %7, 2
  %.not.i.i.i = icmp eq i16 %14, 0
  %15 = getelementptr inbounds nuw i8, ptr %0, i64 10
  %16 = getelementptr inbounds nuw i8, ptr %0, i64 24
  %17 = load ptr, ptr %16, align 8
  %18 = select i1 %.not.i.i.i, ptr %17, ptr %15
  br label %19

19:                                               ; preds = %.lr.ph, %54
  %.02958 = phi i32 [ 0, %.lr.ph ], [ %55, %54 ]
  %.03057 = phi i32 [ 0, %.lr.ph ], [ %.2, %54 ]
  %.03255 = phi i16 [ 0, %.lr.ph ], [ %.133, %54 ]
  %.03454 = phi i8 [ 0, %.lr.ph ], [ %.135, %54 ]
  %20 = icmp ult i32 %.02958, %13
  br i1 %20, label %21, label %_ZNK6icu_7713UnicodeStringixEi.exit

21:                                               ; preds = %19
  %22 = sext i32 %.02958 to i64
  %23 = getelementptr inbounds i16, ptr %18, i64 %22
  %24 = load i16, ptr %23, align 2, !tbaa !69
  br label %_ZNK6icu_7713UnicodeStringixEi.exit

_ZNK6icu_7713UnicodeStringixEi.exit:              ; preds = %19, %21
  %.0.i.i = phi i16 [ %24, %21 ], [ -1, %19 ]
  %25 = icmp ne i16 %.0.i.i, %.03255
  %26 = icmp sgt i32 %.03057, 0
  %or.cond = select i1 %25, i1 %26, i1 false
  br i1 %or.cond, label %27, label %34

27:                                               ; preds = %_ZNK6icu_7713UnicodeStringixEi.exit
  %28 = icmp ult i16 %.03255, 128
  br i1 %28, label %29, label %_ZN6icu_7716SimpleDateFormat16getLevelFromCharEDs.exit

29:                                               ; preds = %27
  %30 = zext nneg i16 %.03255 to i64
  %31 = getelementptr inbounds nuw [128 x i32], ptr @_ZZN6icu_7716SimpleDateFormat16getLevelFromCharEDsE14mapCharToLevel, i64 0, i64 %30
  %32 = load i32, ptr %31, align 4, !tbaa !12
  br label %_ZN6icu_7716SimpleDateFormat16getLevelFromCharEDs.exit

_ZN6icu_7716SimpleDateFormat16getLevelFromCharEDs.exit: ; preds = %27, %29
  %33 = phi i32 [ %32, %29 ], [ -1, %27 ]
  %.not = icmp sgt i32 %5, %33
  br i1 %.not, label %34, label %.loopexit

34:                                               ; preds = %_ZN6icu_7716SimpleDateFormat16getLevelFromCharEDs.exit, %_ZNK6icu_7713UnicodeStringixEi.exit
  %.131 = phi i32 [ %.03057, %_ZNK6icu_7713UnicodeStringixEi.exit ], [ 0, %_ZN6icu_7716SimpleDateFormat16getLevelFromCharEDs.exit ]
  %35 = icmp eq i16 %.0.i.i, 39
  br i1 %35, label %36, label %45

36:                                               ; preds = %34
  %37 = add nsw i32 %.02958, 1
  %38 = icmp slt i32 %37, %13
  %39 = icmp ult i32 %37, %13
  %or.cond50 = and i1 %38, %39
  br i1 %or.cond50, label %_ZNK6icu_7713UnicodeStringixEi.exit47, label %_ZNK6icu_7713UnicodeStringixEi.exit47.thread

_ZNK6icu_7713UnicodeStringixEi.exit47:            ; preds = %36
  %40 = sext i32 %37 to i64
  %41 = getelementptr inbounds i16, ptr %18, i64 %40
  %42 = load i16, ptr %41, align 2, !tbaa !69
  %43 = icmp eq i16 %42, 39
  br i1 %43, label %54, label %_ZNK6icu_7713UnicodeStringixEi.exit47.thread

_ZNK6icu_7713UnicodeStringixEi.exit47.thread:     ; preds = %_ZNK6icu_7713UnicodeStringixEi.exit47, %36
  %.not41 = icmp eq i8 %.03454, 0
  %44 = zext i1 %.not41 to i8
  br label %54

45:                                               ; preds = %34
  %.not39 = icmp eq i8 %.03454, 0
  br i1 %.not39, label %46, label %54

46:                                               ; preds = %45
  %47 = icmp ult i16 %.0.i.i, 128
  br i1 %47, label %_ZN6icu_7716SimpleDateFormat12isSyntaxCharEDs.exit, label %_ZN6icu_7716SimpleDateFormat12isSyntaxCharEDs.exit.thread

_ZN6icu_7716SimpleDateFormat12isSyntaxCharEDs.exit: ; preds = %46
  %48 = zext nneg i16 %.0.i.i to i64
  %49 = getelementptr inbounds nuw [128 x i8], ptr @_ZZN6icu_7716SimpleDateFormat12isSyntaxCharEDsE17mapCharToIsSyntax, i64 0, i64 %48
  %50 = load i8, ptr %49, align 1, !tbaa !51
  %.fr = freeze i8 %50
  %51 = icmp ne i8 %.fr, 0
  %spec.select = select i1 %51, i16 %.0.i.i, i16 %.03255
  %52 = zext i1 %51 to i32
  br label %_ZN6icu_7716SimpleDateFormat12isSyntaxCharEDs.exit.thread

_ZN6icu_7716SimpleDateFormat12isSyntaxCharEDs.exit.thread: ; preds = %_ZN6icu_7716SimpleDateFormat12isSyntaxCharEDs.exit, %46
  %.not4062 = phi i32 [ 0, %46 ], [ %52, %_ZN6icu_7716SimpleDateFormat12isSyntaxCharEDs.exit ]
  %53 = phi i16 [ %.03255, %46 ], [ %spec.select, %_ZN6icu_7716SimpleDateFormat12isSyntaxCharEDs.exit ]
  %spec.select44 = add nsw i32 %.131, %.not4062
  br label %54

54:                                               ; preds = %_ZN6icu_7716SimpleDateFormat12isSyntaxCharEDs.exit.thread, %_ZNK6icu_7713UnicodeStringixEi.exit47, %_ZNK6icu_7713UnicodeStringixEi.exit47.thread, %45
  %.135 = phi i8 [ %44, %_ZNK6icu_7713UnicodeStringixEi.exit47.thread ], [ 1, %45 ], [ %.03454, %_ZNK6icu_7713UnicodeStringixEi.exit47 ], [ 0, %_ZN6icu_7716SimpleDateFormat12isSyntaxCharEDs.exit.thread ]
  %.133 = phi i16 [ %.03255, %_ZNK6icu_7713UnicodeStringixEi.exit47.thread ], [ %.03255, %45 ], [ %.03255, %_ZNK6icu_7713UnicodeStringixEi.exit47 ], [ %53, %_ZN6icu_7716SimpleDateFormat12isSyntaxCharEDs.exit.thread ]
  %.2 = phi i32 [ %.131, %_ZNK6icu_7713UnicodeStringixEi.exit47.thread ], [ %.131, %45 ], [ %.131, %_ZNK6icu_7713UnicodeStringixEi.exit47 ], [ %spec.select44, %_ZN6icu_7716SimpleDateFormat12isSyntaxCharEDs.exit.thread ]
  %.1 = phi i32 [ %.02958, %_ZNK6icu_7713UnicodeStringixEi.exit47.thread ], [ %.02958, %45 ], [ %37, %_ZNK6icu_7713UnicodeStringixEi.exit47 ], [ %.02958, %_ZN6icu_7716SimpleDateFormat12isSyntaxCharEDs.exit.thread ]
  %55 = add nsw i32 %.1, 1
  %.not42 = icmp slt i32 %55, %13
  br i1 %.not42, label %19, label %.critedge, !llvm.loop !217

.critedge:                                        ; preds = %54
  %56 = icmp sgt i32 %.2, 0
  br i1 %56, label %57, label %.critedge.thread

57:                                               ; preds = %.critedge
  %58 = icmp ult i16 %.133, 128
  br i1 %58, label %59, label %_ZN6icu_7716SimpleDateFormat16getLevelFromCharEDs.exit48

59:                                               ; preds = %57
  %60 = zext nneg i16 %.133 to i64
  %61 = getelementptr inbounds nuw [128 x i32], ptr @_ZZN6icu_7716SimpleDateFormat16getLevelFromCharEDsE14mapCharToLevel, i64 0, i64 %60
  %62 = load i32, ptr %61, align 4, !tbaa !12
  br label %_ZN6icu_7716SimpleDateFormat16getLevelFromCharEDs.exit48

_ZN6icu_7716SimpleDateFormat16getLevelFromCharEDs.exit48: ; preds = %57, %59
  %63 = phi i32 [ %62, %59 ], [ -1, %57 ]
  %.not43 = icmp sgt i32 %5, %63
  br i1 %.not43, label %.critedge.thread, label %.loopexit

.critedge.thread:                                 ; preds = %2, %_ZN6icu_7716SimpleDateFormat16getLevelFromCharEDs.exit48, %.critedge
  br label %.loopexit

.loopexit:                                        ; preds = %_ZN6icu_7716SimpleDateFormat16getLevelFromCharEDs.exit, %_ZN6icu_7716SimpleDateFormat16getLevelFromCharEDs.exit48, %.critedge.thread
  %.137 = phi i8 [ 1, %.critedge.thread ], [ 0, %_ZN6icu_7716SimpleDateFormat16getLevelFromCharEDs.exit48 ], [ 0, %_ZN6icu_7716SimpleDateFormat16getLevelFromCharEDs.exit ]
  ret i8 %.137
}